target datalayout = "e-m:e-p270:32:32-p271:32:32-p272:64:64-i64:64-i128:128-f80:128-n8:16:32:64-S128"
target triple = "x86_64-pc-linux-gnu"

%struct._generic_N_Vector = type { ptr, ptr, ptr }
%struct._N_VectorContent_Serial = type { i64, i32, ptr }

@.str.41 = private unnamed_addr constant [17 x i8] c"\0AAt bottom left:\00", align 1
@.str.42 = private unnamed_addr constant [2 x i8] c"\0A\00", align 1
@.str.43 = private unnamed_addr constant [4 x i8] c" %g\00", align 1
@.str.44 = private unnamed_addr constant [16 x i8] c"\0A\0AAt top right:\00", align 1
@.str.45 = private unnamed_addr constant [3 x i8] c"\0A\0A\00", align 1

; Function Attrs: nounwind uwtable
define internal void @PrintOutput(ptr noundef %0) #0 {
  %2 = alloca ptr, align 8
  %3 = alloca i32, align 4
  %4 = alloca i32, align 4
  %5 = alloca i32, align 4
  %6 = alloca ptr, align 8
  store ptr %0, ptr %2, align 8, !tbaa !9
  call void @llvm.lifetime.start.p0(i64 4, ptr %3) #6
  call void @llvm.lifetime.start.p0(i64 4, ptr %4) #6
  call void @llvm.lifetime.start.p0(i64 4, ptr %5) #6
  call void @llvm.lifetime.start.p0(i64 8, ptr %6) #6
  store i32 0, ptr %5, align 4, !tbaa !14
  store i32 0, ptr %4, align 4, !tbaa !14
  %7 = load ptr, ptr %2, align 8, !tbaa !9
  %8 = getelementptr inbounds nuw %struct._generic_N_Vector, ptr %7, i32 0, i32 0
  %9 = load ptr, ptr %8, align 8, !tbaa !46
  %10 = getelementptr inbounds nuw %struct._N_VectorContent_Serial, ptr %9, i32 0, i32 2
  %11 = load ptr, ptr %10, align 8, !tbaa !49
  %12 = load i32, ptr %4, align 4, !tbaa !14
  %13 = mul nsw i32 %12, 6
  %14 = load i32, ptr %5, align 4, !tbaa !14
  %15 = mul nsw i32 %14, 30
  %16 = add nsw i32 %13, %15
  %17 = sext i32 %16 to i64
  %18 = getelementptr inbounds double, ptr %11, i64 %17
  store ptr %18, ptr %6, align 8, !tbaa !45
  %19 = call i32 (ptr, ...) @printf(ptr noundef @.str.41)
  store i32 0, ptr %3, align 4, !tbaa !14
  br label %20

20:                                               ; preds = %38, %1
  %21 = load i32, ptr %3, align 4, !tbaa !14
  %22 = icmp slt i32 %21, 6
  br i1 %22, label %23, label %41

23:                                               ; preds = %20
  %24 = load i32, ptr %3, align 4, !tbaa !14
  %25 = srem i32 %24, 6
  %26 = mul nsw i32 %25, 6
  %27 = load i32, ptr %3, align 4, !tbaa !14
  %28 = icmp eq i32 %26, %27
  br i1 %28, label %29, label %31

29:                                               ; preds = %23
  %30 = call i32 (ptr, ...) @printf(ptr noundef @.str.42)
  br label %31

31:                                               ; preds = %29, %23
  %32 = load ptr, ptr %6, align 8, !tbaa !45
  %33 = load i32, ptr %3, align 4, !tbaa !14
  %34 = sext i32 %33 to i64
  %35 = getelementptr inbounds double, ptr %32, i64 %34
  %36 = load double, ptr %35, align 8, !tbaa !21
  %37 = call i32 (ptr, ...) @printf(ptr noundef @.str.43, double noundef %36)
  br label %38

38:                                               ; preds = %31
  %39 = load i32, ptr %3, align 4, !tbaa !14
  %40 = add nsw i32 %39, 1
  store i32 %40, ptr %3, align 4, !tbaa !14
  br label %20

41:                                               ; preds = %20
  store i32 4, ptr %5, align 4, !tbaa !14
  store i32 4, ptr %4, align 4, !tbaa !14
  %42 = load ptr, ptr %2, align 8, !tbaa !9
  %43 = getelementptr inbounds nuw %struct._generic_N_Vector, ptr %42, i32 0, i32 0
  %44 = load ptr, ptr %43, align 8, !tbaa !46
  %45 = getelementptr inbounds nuw %struct._N_VectorContent_Serial, ptr %44, i32 0, i32 2
  %46 = load ptr, ptr %45, align 8, !tbaa !49
  %47 = load i32, ptr %4, align 4, !tbaa !14
  %48 = mul nsw i32 %47, 6
  %49 = load i32, ptr %5, align 4, !tbaa !14
  %50 = mul nsw i32 %49, 30
  %51 = add nsw i32 %48, %50
  %52 = sext i32 %51 to i64
  %53 = getelementptr inbounds double, ptr %46, i64 %52
  store ptr %53, ptr %6, align 8, !tbaa !45
  %54 = call i32 (ptr, ...) @printf(ptr noundef @.str.44)
  store i32 0, ptr %3, align 4, !tbaa !14
  br label %55

55:                                               ; preds = %73, %41
  %56 = load i32, ptr %3, align 4, !tbaa !14
  %57 = icmp slt i32 %56, 6
  br i1 %57, label %58, label %76

58:                                               ; preds = %55
  %59 = load i32, ptr %3, align 4, !tbaa !14
  %60 = srem i32 %59, 6
  %61 = mul nsw i32 %60, 6
  %62 = load i32, ptr %3, align 4, !tbaa !14
  %63 = icmp eq i32 %61, %62
  br i1 %63, label %64, label %66

64:                                               ; preds = %58
  %65 = call i32 (ptr, ...) @printf(ptr noundef @.str.42)
  br label %66

66:                                               ; preds = %64, %58
  %67 = load ptr, ptr %6, align 8, !tbaa !45
  %68 = load i32, ptr %3, align 4, !tbaa !14
  %69 = sext i32 %68 to i64
  %70 = getelementptr inbounds double, ptr %67, i64 %69
  %71 = load double, ptr %70, align 8, !tbaa !21
  %72 = call i32 (ptr, ...) @printf(ptr noundef @.str.43, double noundef %71)
  br label %73

73:                                               ; preds = %66
  %74 = load i32, ptr %3, align 4, !tbaa !14
  %75 = add nsw i32 %74, 1
  store i32 %75, ptr %3, align 4, !tbaa !14
  br label %55

76:                                               ; preds = %55
  %77 = call i32 (ptr, ...) @printf(ptr noundef @.str.45)
  call void @llvm.lifetime.end.p0(i64 8, ptr %6) #6
  call void @llvm.lifetime.end.p0(i64 4, ptr %5) #6
  call void @llvm.lifetime.end.p0(i64 4, ptr %4) #6
  call void @llvm.lifetime.end.p0(i64 4, ptr %3) #6
  ret void
}