; Function Attrs: nofree nounwind uwtable
define internal fastcc void @PrintOutput(ptr noundef readonly captures(none) %0) unnamed_addr #5 {
  %2 = load ptr, ptr %0, align 8, !tbaa !38
  %3 = getelementptr inbounds nuw i8, ptr %2, i64 16
  %4 = load ptr, ptr %3, align 8, !tbaa !41
  %5 = tail call i32 (ptr, ...) @printf(ptr noundef nonnull dereferenceable(1) @.str.41)
  br label %6

6:                                                ; preds = %1, %11
  %indvars.iv = phi i64 [ 0, %1 ], [ %indvars.iv.next, %11 ]
  %7 = mul i64 %indvars.iv, 6
  %8 = and i64 %7, 4294967294
  %9 = icmp eq i64 %8, %indvars.iv
  br i1 %9, label %10, label %11

10:                                               ; preds = %6
  %putchar17 = tail call i32 @putchar(i32 10)
  br label %11

11:                                               ; preds = %10, %6
  %12 = getelementptr inbounds nuw double, ptr %4, i64 %indvars.iv
  %13 = load double, ptr %12, align 8, !tbaa !34
  %14 = tail call i32 (ptr, ...) @printf(ptr noundef nonnull dereferenceable(1) @.str.43, double noundef %13)
  %indvars.iv.next = add nuw nsw i64 %indvars.iv, 1
  %exitcond.not = icmp eq i64 %indvars.iv.next, 6
  br i1 %exitcond.not, label %15, label %6

15:                                               ; preds = %11
  %16 = load ptr, ptr %0, align 8, !tbaa !38
  %17 = getelementptr inbounds nuw i8, ptr %16, i64 16
  %18 = load ptr, ptr %17, align 8, !tbaa !41
  %19 = getelementptr inbounds nuw i8, ptr %18, i64 1152
  %20 = tail call i32 (ptr, ...) @printf(ptr noundef nonnull dereferenceable(1) @.str.44)
  br label %21

21:                                               ; preds = %15, %26
  %indvars.iv21 = phi i64 [ 0, %15 ], [ %indvars.iv.next22, %26 ]
  %22 = mul i64 %indvars.iv21, 6
  %23 = and i64 %22, 4294967294
  %24 = icmp eq i64 %23, %indvars.iv21
  br i1 %24, label %25, label %26

25:                                               ; preds = %21
  %putchar = tail call i32 @putchar(i32 10)
  br label %26

26:                                               ; preds = %25, %21
  %27 = getelementptr inbounds nuw double, ptr %19, i64 %indvars.iv21
  %28 = load double, ptr %27, align 8, !tbaa !34
  %29 = tail call i32 (ptr, ...) @printf(ptr noundef nonnull dereferenceable(1) @.str.43, double noundef %28)
  %indvars.iv.next22 = add nuw nsw i64 %indvars.iv21, 1
  %exitcond24.not = icmp eq i64 %indvars.iv.next22, 6
  br i1 %exitcond24.not, label %30, label %21

30:                                               ; preds = %26
  %puts = tail call i32 @puts(ptr nonnull dereferenceable(1) @str.13)
  ret void
}